; ModuleID = '8/1162.c'
source_filename = "8/1162.c"
target datalayout = "e-m:e-p270:32:32-p271:32:32-p272:64:64-i64:64-f80:128-n8:16:32:64-S128"
target triple = "x86_64-pc-linux-gnu"

@.str = private unnamed_addr constant [3 x i8] c"%d\00", align 1
@.str.1 = private unnamed_addr constant [4 x i8] c" %d\00", align 1
@.str.2 = private unnamed_addr constant [6 x i8] c"%d %d\00", align 1

; Function Attrs: noinline nounwind uwtable
define dso_local i32 @Compare(i8* %0, i8* %1) #0 {
  %3 = alloca i32, align 4
  %4 = alloca i8*, align 8
  %5 = alloca i8*, align 8
  store i8* %0, i8** %4, align 8
  store i8* %1, i8** %5, align 8
  %6 = load i8*, i8** %4, align 8
  %7 = bitcast i8* %6 to i32*
  %8 = load i32, i32* %7, align 4
  %9 = load i8*, i8** %5, align 8
  %10 = bitcast i8* %9 to i32*
  %11 = load i32, i32* %10, align 4
  %12 = icmp sgt i32 %8, %11
  br i1 %12, label %13, label %14

13:                                               ; preds = %2
  store i32 1, i32* %3, align 4
  br label %32

14:                                               ; preds = %2
  %15 = load i8*, i8** %4, align 8
  %16 = bitcast i8* %15 to i32*
  %17 = load i32, i32* %16, align 4
  %18 = load i8*, i8** %5, align 8
  %19 = bitcast i8* %18 to i32*
  %20 = load i32, i32* %19, align 4
  %21 = icmp eq i32 %17, %20
  br i1 %21, label %22, label %23

22:                                               ; preds = %14
  store i32 0, i32* %3, align 4
  br label %32

23:                                               ; preds = %14
  %24 = load i8*, i8** %4, align 8
  %25 = bitcast i8* %24 to i32*
  %26 = load i32, i32* %25, align 4
  %27 = load i8*, i8** %5, align 8
  %28 = bitcast i8* %27 to i32*
  %29 = load i32, i32* %28, align 4
  %30 = icmp slt i32 %26, %29
  br i1 %30, label %31, label %32

31:                                               ; preds = %23
  store i32 -1, i32* %3, align 4
  br label %32

32:                                               ; preds = %13, %22, %31, %23
  %33 = load i32, i32* %3, align 4
  ret i32 %33
}

; Function Attrs: noinline nounwind uwtable
define dso_local i32* @shuru(i32 %0, i32* %1) #0 {
  %3 = alloca i32, align 4
  %4 = alloca i32*, align 8
  %5 = alloca i32, align 4
  store i32 %0, i32* %3, align 4
  store i32* %1, i32** %4, align 8
  %6 = load i32, i32* %3, align 4
  %7 = sext i32 %6 to i64
  %8 = mul i64 %7, 4
  %9 = call noalias i8* @malloc(i64 %8) #3
  %10 = bitcast i8* %9 to i32*
  store i32* %10, i32** %4, align 8
  %11 = load i32*, i32** %4, align 8
  %12 = getelementptr inbounds i32, i32* %11, i64 0
  %13 = call i32 (i8*, ...) @__isoc99_scanf(i8* getelementptr inbounds ([3 x i8], [3 x i8]* @.str, i64 0, i64 0), i32* %12)
  store i32 1, i32* %5, align 4
  br label %14

14:                                               ; preds = %24, %2
  %15 = load i32, i32* %5, align 4
  %16 = load i32, i32* %3, align 4
  %17 = icmp slt i32 %15, %16
  br i1 %17, label %18, label %27

18:                                               ; preds = %14
  %19 = load i32*, i32** %4, align 8
  %20 = load i32, i32* %5, align 4
  %21 = sext i32 %20 to i64
  %22 = getelementptr inbounds i32, i32* %19, i64 %21
  %23 = call i32 (i8*, ...) @__isoc99_scanf(i8* getelementptr inbounds ([4 x i8], [4 x i8]* @.str.1, i64 0, i64 0), i32* %22)
  br label %24

24:                                               ; preds = %18
  %25 = load i32, i32* %5, align 4
  %26 = add nsw i32 %25, 1
  store i32 %26, i32* %5, align 4
  br label %14

27:                                               ; preds = %14
  %28 = load i32*, i32** %4, align 8
  ret i32* %28
}

; Function Attrs: nounwind
declare dso_local noalias i8* @malloc(i64) #1

declare dso_local i32 @__isoc99_scanf(i8*, ...) #2

; Function Attrs: noinline nounwind uwtable
define dso_local i32 @main() #0 {
  %1 = alloca i32, align 4
  %2 = alloca i32, align 4
  %3 = alloca i32, align 4
  %4 = alloca i32, align 4
  %5 = alloca i32*, align 8
  %6 = alloca i32*, align 8
  store i32 0, i32* %1, align 4
  %7 = call i32 (i8*, ...) @__isoc99_scanf(i8* getelementptr inbounds ([6 x i8], [6 x i8]* @.str.2, i64 0, i64 0), i32* %2, i32* %3)
  %8 = load i32, i32* %2, align 4
  %9 = load i32*, i32** %5, align 8
  %10 = call i32* @shuru(i32 %8, i32* %9)
  store i32* %10, i32** %5, align 8
  %11 = load i32, i32* %3, align 4
  %12 = load i32*, i32** %6, align 8
  %13 = call i32* @shuru(i32 %11, i32* %12)
  store i32* %13, i32** %6, align 8
  %14 = load i32*, i32** %5, align 8
  %15 = bitcast i32* %14 to i8*
  %16 = load i32, i32* %2, align 4
  %17 = sext i32 %16 to i64
  call void @qsort(i8* %15, i64 %17, i64 4, i32 (i8*, i8*)* @Compare)
  %18 = load i32*, i32** %6, align 8
  %19 = bitcast i32* %18 to i8*
  %20 = load i32, i32* %3, align 4
  %21 = sext i32 %20 to i64
  call void @qsort(i8* %19, i64 %21, i64 4, i32 (i8*, i8*)* @Compare)
  %22 = load i32*, i32** %5, align 8
  %23 = getelementptr inbounds i32, i32* %22, i64 0
  %24 = load i32, i32* %23, align 4
  %25 = call i32 (i8*, ...) @printf(i8* getelementptr inbounds ([3 x i8], [3 x i8]* @.str, i64 0, i64 0), i32 %24)
  store i32 1, i32* %4, align 4
  br label %26

26:                                               ; preds = %37, %0
  %27 = load i32, i32* %4, align 4
  %28 = load i32, i32* %2, align 4
  %29 = icmp slt i32 %27, %28
  br i1 %29, label %30, label %40

30:                                               ; preds = %26
  %31 = load i32*, i32** %5, align 8
  %32 = load i32, i32* %4, align 4
  %33 = sext i32 %32 to i64
  %34 = getelementptr inbounds i32, i32* %31, i64 %33
  %35 = load i32, i32* %34, align 4
  %36 = call i32 (i8*, ...) @printf(i8* getelementptr inbounds ([4 x i8], [4 x i8]* @.str.1, i64 0, i64 0), i32 %35)
  br label %37

37:                                               ; preds = %30
  %38 = load i32, i32* %4, align 4
  %39 = add nsw i32 %38, 1
  store i32 %39, i32* %4, align 4
  br label %26

40:                                               ; preds = %26
  %41 = load i32*, i32** %6, align 8
  %42 = getelementptr inbounds i32, i32* %41, i64 0
  %43 = load i32, i32* %42, align 4
  %44 = call i32 (i8*, ...) @printf(i8* getelementptr inbounds ([4 x i8], [4 x i8]* @.str.1, i64 0, i64 0), i32 %43)
  store i32 1, i32* %4, align 4
  br label %45

45:                                               ; preds = %56, %40
  %46 = load i32, i32* %4, align 4
  %47 = load i32, i32* %3, align 4
  %48 = icmp slt i32 %46, %47
  br i1 %48, label %49, label %59

49:                                               ; preds = %45
  %50 = load i32*, i32** %6, align 8
  %51 = load i32, i32* %4, align 4
  %52 = sext i32 %51 to i64
  %53 = getelementptr inbounds i32, i32* %50, i64 %52
  %54 = load i32, i32* %53, align 4
  %55 = call i32 (i8*, ...) @printf(i8* getelementptr inbounds ([4 x i8], [4 x i8]* @.str.1, i64 0, i64 0), i32 %54)
  br label %56

56:                                               ; preds = %49
  %57 = load i32, i32* %4, align 4
  %58 = add nsw i32 %57, 1
  store i32 %58, i32* %4, align 4
  br label %45

59:                                               ; preds = %45
  %60 = load i32*, i32** %5, align 8
  %61 = bitcast i32* %60 to i8*
  call void @free(i8* %61) #3
  %62 = load i32*, i32** %6, align 8
  %63 = bitcast i32* %62 to i8*
  call void @free(i8* %63) #3
  %64 = load i32, i32* %1, align 4
  ret i32 %64
}

declare dso_local void @qsort(i8*, i64, i64, i32 (i8*, i8*)*) #2

declare dso_local i32 @printf(i8*, ...) #2

; Function Attrs: nounwind
declare dso_local void @free(i8*) #1


!llvm.module.flags = !{!0}
!llvm.ident = !{!1}

!0 = !{i32 1, !"wchar_size", i32 4}
!1 = !{!"clang version 10.0.0-4ubuntu1 "}
